; Function Attrs: nounwind uwtable
define i32 @execle(ptr noundef nonnull %0, ptr noundef nonnull %1, ...) local_unnamed_addr #0 {
  %3 = alloca [1 x %struct.__va_list_tag], align 16
  %4 = alloca [1 x %struct.__va_list_tag], align 16
  call void @llvm.lifetime.start.p0(i64 24, ptr nonnull %4) #11
  call void @llvm.va_start.p0(ptr nonnull %4)
  call void @llvm.lifetime.start.p0(i64 24, ptr nonnull %3) #11
  call void @llvm.va_copy.p0(ptr nonnull %3, ptr nonnull %4)
  %.promoted.i = load i32, ptr %3, align 16
  %5 = getelementptr inbounds nuw i8, ptr %3, i64 8
  %6 = getelementptr inbounds nuw i8, ptr %3, i64 16
  %7 = load ptr, ptr %6, align 16
  %.promoted3.i = load ptr, ptr %5, align 8
  br label %8

8:                                                ; preds = %18, %2
  %9 = phi ptr [ %.promoted3.i, %2 ], [ %19, %18 ]
  %10 = phi i32 [ %.promoted.i, %2 ], [ %20, %18 ]
  %.0.i = phi i32 [ 0, %2 ], [ %23, %18 ]
  %11 = icmp ult i32 %10, 41
  br i1 %11, label %12, label %16

12:                                               ; preds = %8
  %13 = zext nneg i32 %10 to i64
  %14 = getelementptr i8, ptr %7, i64 %13
  %15 = add nuw nsw i32 %10, 8
  store i32 %15, ptr %3, align 16
  br label %18

16:                                               ; preds = %8
  %17 = getelementptr i8, ptr %9, i64 8
  store ptr %17, ptr %5, align 8
  br label %18

18:                                               ; preds = %16, %12
  %19 = phi ptr [ %9, %12 ], [ %17, %16 ]
  %20 = phi i32 [ %15, %12 ], [ %10, %16 ]
  %21 = phi ptr [ %14, %12 ], [ %9, %16 ]
  %22 = load ptr, ptr %21, align 8, !tbaa !8
  %.not.i = icmp eq ptr %22, null
  %23 = add nuw nsw i32 %.0.i, 1
  br i1 %.not.i, label %count_args.exit, label %8, !llvm.loop !17

count_args.exit:                                  ; preds = %18
  call void @llvm.va_end.p0(ptr nonnull %3)
  call void @llvm.lifetime.end.p0(i64 24, ptr nonnull %3) #11
  %24 = add nuw nsw i32 %.0.i, 2
  %25 = zext nneg i32 %24 to i64
  %26 = shl nuw nsw i64 %25, 3
  %27 = alloca i8, i64 %26, align 16
  %28 = getelementptr inbounds nuw i8, ptr %4, i64 8
  %29 = getelementptr inbounds nuw i8, ptr %4, i64 16
  %.promoted = load i32, ptr %4, align 16
  %.promoted7 = load ptr, ptr %28, align 8
  %30 = load ptr, ptr %29, align 16
  br label %31

31:                                               ; preds = %46, %count_args.exit
  %32 = phi ptr [ %42, %46 ], [ %.promoted7, %count_args.exit ]
  %33 = phi i32 [ %43, %46 ], [ %.promoted, %count_args.exit ]
  %indvars.iv.i = phi i64 [ %indvars.iv.next.i, %46 ], [ 1, %count_args.exit ]
  %34 = icmp ult i32 %33, 41
  br i1 %34, label %35, label %39

35:                                               ; preds = %31
  %36 = zext nneg i32 %33 to i64
  %37 = getelementptr i8, ptr %30, i64 %36
  %38 = add nuw nsw i32 %33, 8
  store i32 %38, ptr %4, align 16
  br label %41

39:                                               ; preds = %31
  %40 = getelementptr i8, ptr %32, i64 8
  store ptr %40, ptr %28, align 8
  br label %41

41:                                               ; preds = %39, %35
  %42 = phi ptr [ %32, %35 ], [ %40, %39 ]
  %43 = phi i32 [ %38, %35 ], [ %33, %39 ]
  %44 = phi ptr [ %37, %35 ], [ %32, %39 ]
  %45 = load ptr, ptr %44, align 8, !tbaa !8
  %.not.i5 = icmp eq ptr %45, null
  br i1 %.not.i5, label %copy_args.exit, label %46

46:                                               ; preds = %41
  %indvars.iv.next.i = add nuw nsw i64 %indvars.iv.i, 1
  %47 = getelementptr inbounds nuw ptr, ptr %27, i64 %indvars.iv.i
  store ptr %45, ptr %47, align 8, !tbaa !8
  br label %31, !llvm.loop !18

copy_args.exit:                                   ; preds = %41
  store ptr %1, ptr %27, align 16, !tbaa !8
  %48 = and i64 %indvars.iv.i, 4294967295
  %49 = getelementptr inbounds nuw ptr, ptr %27, i64 %48
  store ptr null, ptr %49, align 8, !tbaa !8
  %50 = icmp ult i32 %43, 41
  br i1 %50, label %51, label %55

51:                                               ; preds = %copy_args.exit
  %52 = zext nneg i32 %43 to i64
  %53 = getelementptr i8, ptr %30, i64 %52
  %54 = add nuw nsw i32 %43, 8
  store i32 %54, ptr %4, align 16
  br label %57

55:                                               ; preds = %copy_args.exit
  %56 = getelementptr i8, ptr %42, i64 8
  store ptr %56, ptr %28, align 8
  br label %57

57:                                               ; preds = %55, %51
  %58 = phi ptr [ %53, %51 ], [ %42, %55 ]
  %59 = load ptr, ptr %58, align 8, !tbaa !10
  call void @llvm.va_end.p0(ptr nonnull %4)
  call void (ptr, ...) @debug_print(ptr noundef nonnull @.str.3, ptr noundef nonnull %0)
  %60 = call fastcc zeroext i1 @is_ld(ptr noundef nonnull %0)
  br i1 %60, label %61, label %execve.exit

61:                                               ; preds = %57
  %62 = call ptr @getenv(ptr noundef nonnull @.str.15) #11
  %.not.i.i = icmp eq ptr %62, null
  br i1 %.not.i.i, label %63, label %execve.exit

63:                                               ; preds = %61
  %64 = load ptr, ptr @stderr, align 8, !tbaa !3
  %65 = call i64 @fwrite(ptr nonnull @.str.16, i64 21, i64 1, ptr %64) #12
  call void @exit(i32 noundef 1) #13
  unreachable

execve.exit:                                      ; preds = %57, %61
  %.0.i6 = phi ptr [ %0, %57 ], [ %62, %61 ]
  %66 = call ptr @dlsym(ptr noundef nonnull inttoptr (i64 -1 to ptr), ptr noundef nonnull @.str.4) #11
  %67 = call i32 %66(ptr noundef nonnull %.0.i6, ptr noundef nonnull %27, ptr noundef %59) #11
  call void @llvm.lifetime.end.p0(i64 24, ptr nonnull %4) #11
  ret i32 %67
}